; Function Attrs: nounwind uwtable
define internal fastcc noundef ptr @llvm_generate_temp_introspection_global(ptr nocapture noundef readonly %0, ptr nocapture noundef writeonly %1) unnamed_addr #0 {
  %3 = getelementptr inbounds i8, ptr %0, i64 8
  %4 = load ptr, ptr %3, align 8
  %5 = getelementptr inbounds i8, ptr %0, i64 176
  %6 = load ptr, ptr %5, align 8
  %7 = tail call ptr @LLVMAddGlobal(ptr noundef %4, ptr noundef %6, ptr noundef nonnull @.str.11) #6
  %8 = getelementptr inbounds i8, ptr %0, i64 64
  %9 = load ptr, ptr %8, align 8
  %10 = getelementptr inbounds i8, ptr %0, i64 200
  %11 = load ptr, ptr %10, align 8
  %12 = tail call ptr @LLVMBuildPtrToInt(ptr noundef %9, ptr noundef %7, ptr noundef %11, ptr noundef nonnull @.str.6) #6
  %13 = getelementptr inbounds i8, ptr %1, i64 40
  store ptr %12, ptr %13, align 8
  ret ptr %7
}